Certificate:
    Data:
        Version: 3 (0x2)
        Serial Number: 4097 (0x1001)
        Signature Algorithm: ecdsa-with-SHA384
        Issuer: C=US, ST=WA, L=Seattle, O=Grilled Cheese Inc., OU=Grilled Cheese Root CA/emailAddress=grilledcheese@yummyinmytummy.us
        Validity
            Not Before: Mar 17 18:17:42 2022 GMT
            Not After : Jan 24 18:17:42 2032 GMT
        Subject: C=US, ST=WA, O=Grilled Cheese Inc., OU=Grilled Cheese Intermediary CA, CN=what to put down for an intermediate CA commonName?/emailAddress=grilledcheese@yummyinmytummy.us
        Subject Public Key Info:
            Public Key Algorithm: id-ecPublicKey
                Public-Key: (384 bit)
                pub:
                    04:a1:ab:9a:89:4b:9e:0f:6e:ec:6f:24:66:45:13:
                    2f:6a:d4:cb:e5:59:bf:3d:19:51:ba:37:03:35:1e:
                    e3:c4:fe:0f:30:6d:6d:e2:1e:84:ec:79:7d:f5:af:
                    94:60:98:4e:99:cd:28:78:5c:8d:d5:cf:77:c2:45:
                    c5:f4:14:de:39:16:21:1b:77:25:ad:f6:5a:c7:92:
                    88:5a:0f:6a:58:e2:a3:f2:6a:79:01:70:bb:a1:5a:
                    bc:c0:ca:8e:ca:2b:02
                ASN1 OID: secp384r1
                NIST CURVE: P-384
        X509v3 extensions:
            X509v3 Subject Key Identifier: 
                5D:0B:31:8C:73:4D:96:C7:F2:B2:99:96:5C:DB:6C:2A:F3:16:D6:45
            X509v3 Authority Key Identifier: 
                keyid:C5:54:2B:9C:50:95:A1:17:E5:81:B7:0F:C2:C4:21:9E:10:52:C0:50

            X509v3 Basic Constraints: critical
                CA:TRUE, pathlen:0
            X509v3 Key Usage: critical
                Digital Signature, Certificate Sign, CRL Sign
            X509v3 CRL Distribution Points: 

                Full Name:
                  URI:http://crl.grilledcheese.us/whomovedmycheese.crl

            Authority Information Access: 
                CA Issuers - URI:http://ocsp.grilledcheese.us/cheddarcheeseroot.crt
                OCSP - URI:http://ocsp.grilledcheese.us/

    Signature Algorithm: ecdsa-with-SHA384
         30:65:02:31:00:d9:b8:d7:60:50:8b:37:c6:2a:17:1c:16:a7:
         c0:7e:1e:52:5d:de:6d:f8:5d:99:05:8d:2a:66:c9:c5:e0:4b:
         86:f4:e2:80:f2:7a:21:8b:eb:84:90:4a:a9:de:a6:c2:3f:02:
         30:49:be:4a:2f:93:e5:18:dc:50:f8:03:a9:2a:d7:70:8e:4b:
         ba:ee:a9:9b:db:d2:65:5d:f8:b0:53:c7:bf:20:7c:28:9a:bc:
         88:d0:b5:c0:b4:f9:de:14:7a:25:eb:c1:61
-----BEGIN CERTIFICATE-----
MIIDwTCCA0egAwIBAgICEAEwCgYIKoZIzj0EAwMwgZsxCzAJBgNVBAYTAlVTMQsw
CQYDVQQIDAJXQTEQMA4GA1UEBwwHU2VhdHRsZTEcMBoGA1UECgwTR3JpbGxlZCBD
aGVlc2UgSW5jLjEfMB0GA1UECwwWR3JpbGxlZCBDaGVlc2UgUm9vdCBDQTEuMCwG
CSqGSIb3DQEJARYfZ3JpbGxlZGNoZWVzZUB5dW1teWlubXl0dW1teS51czAeFw0y
MjAzMTcxODE3NDJaFw0zMjAxMjQxODE3NDJaMIHPMQswCQYDVQQGEwJVUzELMAkG
A1UECAwCV0ExHDAaBgNVBAoME0dyaWxsZWQgQ2hlZXNlIEluYy4xJzAlBgNVBAsM
HkdyaWxsZWQgQ2hlZXNlIEludGVybWVkaWFyeSBDQTE8MDoGA1UEAwwzd2hhdCB0
byBwdXQgZG93biBmb3IgYW4gaW50ZXJtZWRpYXRlIENBIGNvbW1vbk5hbWU/MS4w
LAYJKoZIhvcNAQkBFh9ncmlsbGVkY2hlZXNlQHl1bW15aW5teXR1bW15LnVzMHYw
EAYHKoZIzj0CAQYFK4EEACIDYgAEoauaiUueD27sbyRmRRMvatTL5Vm/PRlRujcD
NR7jxP4PMG1t4h6E7Hl99a+UYJhOmc0oeFyN1c93wkXF9BTeORYhG3clrfZax5KI
Wg9qWOKj8mp5AXC7oVq8wMqOyisCo4IBJjCCASIwHQYDVR0OBBYEFF0LMYxzTZbH
8rKZllzbbCrzFtZFMB8GA1UdIwQYMBaAFMVUK5xQlaEX5YG3D8LEIZ4QUsBQMBIG
A1UdEwEB/wQIMAYBAf8CAQAwDgYDVR0PAQH/BAQDAgGGMEEGA1UdHwQ6MDgwNqA0
oDKGMGh0dHA6Ly9jcmwuZ3JpbGxlZGNoZWVzZS51cy93aG9tb3ZlZG15Y2hlZXNl
LmNybDB5BggrBgEFBQcBAQRtMGswPgYIKwYBBQUHMAKGMmh0dHA6Ly9vY3NwLmdy
aWxsZWRjaGVlc2UudXMvY2hlZGRhcmNoZWVzZXJvb3QuY3J0MCkGCCsGAQUFBzAB
hh1odHRwOi8vb2NzcC5ncmlsbGVkY2hlZXNlLnVzLzAKBggqhkjOPQQDAwNoADBl
AjEA2bjXYFCLN8YqFxwWp8B+HlJd3m34XZkFjSpmycXgS4b04oDyeiGL64SQSqne
psI/AjBJvkovk+UY3FD4A6kq13COS7ruqZvb0mVd+LBTx78gfCiavIjQtcC0+d4U
eiXrwWE=
-----END CERTIFICATE-----
